target datalayout = "e-m:e-p270:32:32-p271:32:32-p272:64:64-i64:64-i128:128-f80:128-n8:16:32:64-S128"
target triple = "x86_64-pc-linux-gnu"

; Function Attrs: nounwind uwtable
define internal double @m_log10(double noundef %0) #0 {
  %2 = alloca double, align 8
  %3 = alloca double, align 8
  store double %0, ptr %3, align 8, !tbaa !13
  %4 = load double, ptr %3, align 8, !tbaa !13
  %5 = call i1 @llvm.is.fpclass.f64(double %4, i32 504)
  br i1 %5, label %6, label %18

6:                                                ; preds = %1
  %7 = load double, ptr %3, align 8, !tbaa !13
  %8 = fcmp ogt double %7, 0.000000e+00
  br i1 %8, label %9, label %12

9:                                                ; preds = %6
  %10 = load double, ptr %3, align 8, !tbaa !13
  %11 = call double @log10(double noundef %10) #10, !tbaa !17
  store double %11, ptr %2, align 8
  br label %30

12:                                               ; preds = %6
  %13 = call ptr @__errno_location() #12
  store i32 33, ptr %13, align 4, !tbaa !17
  %14 = load double, ptr %3, align 8, !tbaa !13
  %15 = fcmp oeq double %14, 0.000000e+00
  br i1 %15, label %16, label %17

16:                                               ; preds = %12
  store double 0xFFF0000000000000, ptr %2, align 8
  br label %30

17:                                               ; preds = %12
  store double 0x7FF8000000000000, ptr %2, align 8
  br label %30

18:                                               ; preds = %1
  %19 = load double, ptr %3, align 8, !tbaa !13
  %20 = call i1 @llvm.is.fpclass.f64(double %19, i32 3)
  br i1 %20, label %21, label %23

21:                                               ; preds = %18
  %22 = load double, ptr %3, align 8, !tbaa !13
  store double %22, ptr %2, align 8
  br label %30

23:                                               ; preds = %18
  %24 = load double, ptr %3, align 8, !tbaa !13
  %25 = fcmp ogt double %24, 0.000000e+00
  br i1 %25, label %26, label %28

26:                                               ; preds = %23
  %27 = load double, ptr %3, align 8, !tbaa !13
  store double %27, ptr %2, align 8
  br label %30

28:                                               ; preds = %23
  %29 = call ptr @__errno_location() #12
  store i32 33, ptr %29, align 4, !tbaa !17
  store double 0x7FF8000000000000, ptr %2, align 8
  br label %30

30:                                               ; preds = %28, %26, %21, %17, %16, %9
  %31 = load double, ptr %2, align 8
  ret double %31
}